
main.elf:     file format elf32-littleriscv
main.elf
architecture: riscv:rv32, flags 0x00000112:
EXEC_P, HAS_SYMS, D_PAGED
start address 0x00002000

Program Header:
0x70000003 off    0x00002518 vaddr 0x00000000 paddr 0x00000000 align 2**0
         filesz 0x0000003a memsz 0x00000000 flags r--
    LOAD off    0x00001000 vaddr 0x00002000 paddr 0x00002000 align 2**12
         filesz 0x00000c90 memsz 0x00000c90 flags r-x
    LOAD off    0x00002000 vaddr 0x00008000 paddr 0x00008000 align 2**12
         filesz 0x00000518 memsz 0x00001518 flags rw-

Sections:
Idx Name          Size      VMA       LMA       File off  Algn
  0 .text         00000c90  00002000  00002000  00001000  2**2
                  CONTENTS, ALLOC, LOAD, READONLY, CODE
  1 _test         00000100  00008000  00008000  00002000  2**0
                  ALLOC
  2 .tohost       00000000  00008100  00008100  00002518  2**0
                  CONTENTS
  3 .data         00000010  00008100  00008100  00002100  2**6
                  CONTENTS, ALLOC, LOAD, DATA
  4 .user_stack   00000204  00008110  00008110  00002110  2**2
                  CONTENTS, ALLOC, LOAD, DATA
  5 .kernel_stack 00000204  00008314  00008314  00002314  2**2
                  CONTENTS, ALLOC, LOAD, DATA
  6 .bss          00000000  00008518  00008518  00002518  2**0
                  ALLOC
  7 .stack        00001000  00008518  00008518  00002518  2**0
                  ALLOC
  8 .riscv.attributes 0000003a  00000000  00000000  00002518  2**0
                  CONTENTS, READONLY
SYMBOL TABLE:
00002000 l    d  .text	00000000 .text
00008000 l    d  _test	00000000 _test
00008100 l    d  .tohost	00000000 .tohost
00008100 l    d  .data	00000000 .data
00008110 l    d  .user_stack	00000000 .user_stack
00008314 l    d  .kernel_stack	00000000 .kernel_stack
00008518 l    d  .bss	00000000 .bss
00008518 l    d  .stack	00000000 .stack
00000000 l    d  .riscv.attributes	00000000 .riscv.attributes
00000000 l    df *ABS*	00000000 setup.o
00002084 l       .text	00000000 init_bss
00002114 l       .text	00000000 fill_block
0000209c l       .text	00000000 init_sbss
000020b4 l       .text	00000000 write_stack_pattern
000020cc l       .text	00000000 init_stack
000020d4 l       .text	00000000 write_test_pattern
000020ec l       .text	00000000 SystemInit
00002110 l       .text	00000000 dead_loop
00002124 l       .text	00000000 fb_end
00000000 l    df *ABS*	00000000 main_patched.o
00002128 l       .text	00000000 _rv_gen_start
0000213c l       .text	00000000 h0_rv_gen_start
00002148 l       .text	00000000 kernel_sp
00008514 l       .kernel_stack	00000000 kernel_stack_end
00002150 l       .text	00000000 trap_vec_init
00002744 l       .text	00000000 mtvec_handler
00002160 l       .text	00000000 mepc_setup
0000216c l       .text	00000000 custom_csr_setup
00002170 l       .text	00000000 init_machine_mode
00008310 l       .user_stack	00000000 user_stack_end
00002240 l       .text	00000000 main
000024a4 l       .text	00000000 sub_1
00002274 l       .text	00000000 main_j2
00002424 l       .text	00000000 sub_2
0000229c l       .text	00000000 main_j3
0000235c l       .text	00000000 main_j1
0000237c l       .text	00000000 test_done
00002384 l       .text	00000000 sub_5
000024e4 l       .text	00000000 sub_1_j4
0000258c l       .text	00000000 sub_3
00002518 l       .text	00000000 sub_1_j5
000025c0 l       .text	00000000 sub_3_j6
0000264c l       .text	00000000 sub_4
0000269c l       .text	00000000 sub_4_j7
000026c4 l       .text	00000000 sub_4_j8
00002734 l       .text	00000000 write_tohost
0000273c l       .text	00000000 _exit
00002740 l       .text	00000000 instr_end
00008110 l       .user_stack	00000000 user_stack_rv_gen_start
00008314 l       .user_stack	00000000 kernel_instr_rv_gen_start
00002be8 l       .text	00000000 mmode_intr_handler
000027e4 l       .text	00000000 mmode_exception_handler
00002aa4 l       .text	00000000 ebreak_handler
00002854 l       .text	00000000 ecall_handler
000028e8 l       .text	00000000 instr_fault_handler
0000297c l       .text	00000000 load_fault_handler
00002a10 l       .text	00000000 store_fault_handler
00002be4 l       .text	00000000 pt_fault_handler
00002b44 l       .text	00000000 illegal_instr_handler
00002c8c l       .text	00000000 kernel_instr_end
00008314 l       .kernel_stack	00000000 kernel_stack_rv_gen_start
00008000 g       _test	00000000 _test_start
00008100 g       .tohost	00000000 __sbss_start
00008900 g       .tohost	00000000 _gp
00008100 g       _test	00000000 _test_end
00000100 g       *ABS*	00000000 _TEST_SIZE
00002c90 g       .text	00000000 __rodata_end
00008518 g       .bss	00000000 __bss_end
00008100 g       .tohost	00000000 __sbss_end
000020f0 g       .text	00000000 SystemExit
00002000 g       .text	00000000 _start
00002c90 g       .text	00000000 __rodata_start
00008110 g       .data	00000000 __data_end
00002188 g       .text	00000000 init
00008518 g       .bss	00000000 __bss_start
00001000 g       *ABS*	00000000 _STACK_SIZE
0000fffc g       .stack	00000000 _sim_end
00008518 g       .stack	00000000 _stack_end
00009518 g       .stack	00000000 __stack
00010000 g       .stack	00000000 _end
00008108 g       .data	00000000 fromhost
00008100 g       .data	00000000 tohost
00009518 g       .stack	00000000 _stack
00008100 g       .data	00000000 __data_start


Contents of section .text:
 2000 93000000 13010000 93010000 13020000  ................
 2010 93020000 13030000 93030000 13040000  ................
 2020 93040000 13050000 93050000 13060000  ................
 2030 93060000 13070000 93070000 13080000  ................
 2040 93080000 13090000 93090000 130a0000  ................
 2050 930a0000 130b0000 930b0000 130c0000  ................
 2060 930c0000 130d0000 930d0000 130e0000  ................
 2070 930e0000 130f0000 930f0000 97710000  .............q..
 2080 93814188 17650000 13054549 97650000  ..A..e....EI.e..
 2090 93858548 13060000 ef00c007 17650000  ...H.........e..
 20a0 13054506 97650000 93858505 13060000  ..E..e..........
 20b0 ef004006 17650000 13054546 97750000  ..@..e....EF.u..
 20c0 93858545 13060000 ef00c004 17710000  ...E.........q..
 20d0 1301c144 17650000 1305c5f2 97650000  ...D.e.......e..
 20e0 93850502 13060000 ef00c002 ef00c009  ................
 20f0 97e20000 9382c2f0 1303f0ff 23a06200  ............#.b.
 2100 93021000 17630000 1303c3ff 23205300  .....c......# S.
 2110 6f000000 6378b500 2320c500 13054500  o...cx..# ....E.
 2120 6ff05fff 67800000 f32240f1 13030000  o._.g...."@.....
 2130 63826200 13000000 13000000 b7060040  c.b............@
 2140 93860610 73901630 976a0000 938aca3c  ....s..0.j.....<
 2150 97060000 9386465f 93e60600 73905630  ......F_....s.V0
 2160 97060000 93868602 73901634 13000000  ........s..4....
 2170 b7260000 93860680 73900630 93060000  .&......s..0....
 2180 73904630 73002030 37e0f5f2 1300606d  s.F0s. 07.....`m
 2190 9300f000 1301f000 b7f175f0 93816149  ..........u...aI
 21a0 37c26491 1302422d b7f2464a 938242d6  7.d...B-..FJ..B.
 21b0 13032000 93030000 13040000 93040000  .. .............
 21c0 37050080 b7050080 37060080 b7f6bffd  7.......7.......
 21d0 9386e612 3777f9f6 13074715 3728619d  ....7w....G.7(a.
 21e0 1308c8c8 b7d84ffe 9388383b 37c994fa  ......O...8;7...
 21f0 1309f963 b7090080 130a8000 37bb4b50  ...c........7.KP
 2200 130b3b4b b78b31ae 938b2b6c 370c00f7  ..;K..1...+l7...
 2210 130c8cd9 930c6000 370d0080 930dd000  ......`.7.......
 2220 130e0000 b70e0080 37ff8ee1 130f3ff1  ........7.....?.
 2230 b77f4860 938f4f1f 97670000 9387870d  ..H`..O..g......
 2240 970b0000 938b4b26 33fa1100 335ec601  ......K&3...3^..
 2250 3322bc01 13000000 3346fd00 b36e9000  3"......3F...n..
 2260 3381cb00 938b9bf5 3358b241 133b6dc1  3.......3X.A.;m.
 2270 13977a01 67838b0a 17020000 1302c21a  ..z.g...........
 2280 33f0a001 33271e01 13000000 1302a204  3...3'..........
 2290 6306fb01 b3820240 13000000 670372fb  c......@....g.r.
 22a0 37c6c191 130626c7 b7b9e64c 93897963  7.....&....L..yc
 22b0 93020000 370a0080 376e6413 130eeedd  ....7...7nd.....
 22c0 130d0000 37070080 370f0080 37080080  ....7...7...7...
 22d0 1304f0ff 33045640 330aca40 17d4b7ec  ....3.V@3..@....
 22e0 130a0fd4 938949ca 13081a55 370e5170  ......I....U7.Qp
 22f0 13000000 b3090641 33084d01 17de73a3  .......A3.M...s.
 2300 13000000 3304a801 37f76841 172e2aa8  ....3...7.hA..*.
 2310 178d1803 b7d25b11 1333b84c 33eea200  ......[..3.L3...
 2320 b3a5f501 13463190 b3f12f01 13a8632a  .....F1.../...c*
 2330 378e4c56 33ca4901 13d15701 170d0000  7.LV3.I...W.....
 2340 130d8d16 33195501 3334a601 130d1de6  ....3.U.34......
 2350 13000000 33a13d00 33407d00 6703fd19  ....3.=.3@}.g...
 2360 33f27d01 33eb7a00 13ebd68d 332ec601  3.}.3.z.....3...
 2370 970f0000 938fcf00 13000000 93011000  ................
 2380 6ff01fd7 9387c7fd 339c9b01 23a26700  o.......3...#.g.
 2390 1315ca01 330ee941 17156168 17cdd603  ....3..A..ah....
 23a0 136c1b14 13cab24d 33df3a00 b384ce41  .l.....M3.:....A
 23b0 33e96500 33887500 13000000 b38de001  3.e.3.u.........
 23c0 3349c401 930ebdac 33153700 136736ed  3I......3.7..g6.
 23d0 b3f19101 13eea6c0 13ccd78e 13be08a2  ................
 23e0 33b1a301 93415517 1346bb79 b3e69e01  3....AU..F.y....
 23f0 33fbd600 93924200 1330f9c9 03a34700  3.....B..0....G.
 2400 b389d141 17648545 93874702 13377827  ...A.d.E..G..7x'
 2410 13402e2f 13500440 b364f100 93020300  .@./.P.@.d......
 2420 e7820200 13c47696 333ca401 135ff740  ......v.3<..._.@
 2430 33882d40 13000000 9387c7fd 13000000  3.-@............
 2440 23a26700 b3a15c00 93c3b477 b7469278  #.g...\....w.F.x
 2450 9789f13c b380af01 134f2382 b39c9701  ...<.....O#.....
 2460 13dca340 37dd23b9 93d58540 13538c00  ...@7.#....@.S..
 2470 1733a36f b36c6f00 13000000 33df0340  .3.o.lo.....3..@
 2480 03a34700 136b559a b345b101 93c5b3e8  ..G..kU..E......
 2490 b7fb4bb3 93874702 97583ea1 930c0300  ..K...G..X>.....
 24a0 e78c0c00 33dae400 33628a00 938787fd  ....3...3b......
 24b0 23a26700 17bfd361 97cba580 33b98f00  #.g....a....3...
 24c0 93a56f1c 3304f701 13000000 33815340  ..o.3.......3.S@
 24d0 33ec8101 b33e5501 335e3900 33254901  3....>U.3^9.3%I.
 24e0 b3592d00 6f03800a 13d0fd41 17090000  .Y-.o......A....
 24f0 1309090a 130959f0 9338c0a7 339ff400  ......Y..8..3...
 2500 33f54600 630a8500 93f863e7 33de9b01  3.F.c.....c.3...
 2510 93e1b14a 1786d5f7 6703c90f b3692d00  ...J....g....i-.
 2520 b38b4600 935e1141 336e8700 13bdcc50  ..F..^.A3n.....P
 2530 334f8601 1734403e 93e30845 b3defb41  3O...4@>...E...A
 2540 b352cd40 33afe800 13000000 33070e00  .R.@3.......3...
 2550 b3001e40 93db3140 b3c49501 b3eb1301  ...@..1@........
 2560 03a34700 33790901 b3090c41 33ab3000  ..G.3y.....A3.0.
 2570 93addeb9 33520c41 33c77100 93878702  ....3R.A3.q.....
 2580 b308c600 130f1300 670f0f00 971e0d94  ........g.......
 2590 938707fc b3927800 23a26700 93595641  ......x.#.g..YVA
 25a0 13000000 332f5700 172e70c2 13dc8740  ....3/W...p....@
 25b0 13d66501 13dc3b40 1324607e b388fe40  ..e...;@.$`~...@
 25c0 6f03c008 3397cd00 b72c08d8 37cd9aa4  o...3....,..7...
 25d0 b353fe01 3358cc01 13a73f61 13000000  .S..3X....?a....
 25e0 33d41a01 33f21101 33b12f00 130b16b9  3...3...3./.....
 25f0 b36e7801 93e86909 b712a9b5 33a93701  .nx...i.....3.7.
 2600 33e9bc00 93cb0d78 b3606401 33848e01  3......x.`d.3...
 2610 b34ef200 97c0a44c 13000000 13000000  .N.....L........
 2620 972e298d 03a34700 b3191c01 13264341  ..)...G......&CA
 2630 13000000 b3d9b541 b713d1a5 93870704  .......A........
 2640 3354d301 130f1300 670f0f00 9387c7fd  3T......g.......
 2650 b3cc9000 13eb9ed5 23a26700 33c84900  ........#.g.3.I.
 2660 9361cae0 13429bf5 371b1c4d 330bac41  .a...B..7..M3..A
 2670 b3c85500 b388e740 33ff9600 134a4317  ..U....@3....JC.
 2680 13000000 b30b5740 17d5fee6 33c11601  ......W@....3...
 2690 335fe900 97102035 b380f900 6ff39fce  3_.... 5....o...
 26a0 1779f564 171793fd 33ee7b01 13dae100  .y.d....3.{.....
 26b0 b3043241 33253801 33706200 33e26800  ..2A3%8.3pb.3.h.
 26c0 b31ce001 6ff31fcc 93516b40 93bb2f2f  ....o....Qk@..//
 26d0 13142f00 3368e700 13942100 b303ca41  ../.3h....!....A
 26e0 1799cc0a 135ceb00 13000000 13cd92ef  .....\..........
 26f0 132fa00f 33f1fd01 33e2ab00 33c09f01  ./..3...3...3...
 2700 136480a1 93163c01 3793f840 b7f646da  .d....<.7..@..F.
 2710 13bf6e03 03a34700 33387200 93874702  ..n...G.38r...G.
 2720 135d8400 b340bf00 13e4ae99 13010300  .]...@..........
 2730 67010100 176f0000 23263f9c 6ff09fff  g....o..#&?.o...
 2740 13000000 938acaff 23a0fa00 b3870a00  ........#.......
 2750 938707f8 23a21700 23a42700 23a63700  ....#...#.'.#.7.
 2760 23a84700 23aa5700 23ac6700 23ae7700  #.G.#.W.#.g.#.w.
 2770 23a08702 23a29702 23a4a702 23a6b702  #...#...#...#...
 2780 23a8c702 23aad702 23ace702 23aef702  #...#...#...#...
 2790 23a00705 23a21705 23a42705 23a63705  #...#...#.'.#.7.
 27a0 23a84705 23aa5705 23ac6705 23ae7705  #.G.#.W.#.g.#.w.
 27b0 23a08707 23a29707 23a4a707 23a6b707  #...#...#...#...
 27c0 23a8c707 23aad707 23ace707 23aef707  #...#...#...#...
 27d0 b38a0700 f3260030 f3262034 93d6f601  .....&.0.& 4....
 27e0 63940640 f3261034 f3262034 13053000  c..@.&.4.& 4..0.
 27f0 638aa62a 13058000 638ea604 13059000  c..*....c.......
 2800 638aa604 1305b000 6386a604 13051000  c.......c.......
 2810 638ca60c 13055000 6382a616 13057000  c.....P.c.....p.
 2820 6388a61e 1305c000 638ea63a 1305d000  c.......c..:....
 2830 638aa63a 1305f000 6386a63a 13052000  c..:....c..:.. .
 2840 6382a630 73253034 970f0000 938f4fb3  c..0s%04......O.
 2850 e7800f00 97f6ffff 9386c67a 23a00600  ...........z#...
 2860 23a21600 23a42600 23a63600 23a84600  #...#.&.#.6.#.F.
 2870 23aa5600 23ac6600 23ae7600 23a08602  #.V.#.f.#.v.#...
 2880 23a29602 23a4a602 23a6b602 23a8c602  #...#...#...#...
 2890 23aad602 23ace602 23aef602 23a00605  #...#...#...#...
 28a0 23a21605 23a42605 23a63605 23a84605  #...#.&.#.6.#.F.
 28b0 23aa5605 23ac6605 23ae7605 23a08607  #.V.#.f.#.v.#...
 28c0 23a29607 23a4a607 23a6b607 23a8c607  #...#...#...#...
 28d0 23aad607 23ace607 23aef607 970f0000  #...#...#.......
 28e0 938f8fe5 13000000 b3870a00 83a04700  ..............G.
 28f0 03a18700 83a1c700 03a20701 83a24701  ..............G.
 2900 03a38701 83a3c701 03a40702 83a44702  ..............G.
 2910 03a58702 83a5c702 03a60703 83a64703  ..............G.
 2920 03a78703 83a7c703 03a80704 83a84704  ..............G.
 2930 03a98704 83a9c704 03aa0705 83aa4705  ..............G.
 2940 03ab8705 83abc705 03ac0706 83ac4706  ..............G.
 2950 03ad8706 83adc706 03ae0707 83ae4707  ..............G.
 2960 03af8707 83afc707 93870708 b38a0700  ................
 2970 83a70a00 938a4a00 73002030 b3870a00  ......J.s. 0....
 2980 83a04700 03a18700 83a1c700 03a20701  ..G.............
 2990 83a24701 03a38701 83a3c701 03a40702  ..G.............
 29a0 83a44702 03a58702 83a5c702 03a60703  ..G.............
 29b0 83a64703 03a78703 83a7c703 03a80704  ..G.............
 29c0 83a84704 03a98704 83a9c704 03aa0705  ..G.............
 29d0 83aa4705 03ab8705 83abc705 03ac0706  ..G.............
 29e0 83ac4706 03ad8706 83adc706 03ae0707  ..G.............
 29f0 83ae4707 03af8707 83afc707 93870708  ..G.............
 2a00 b38a0700 83a70a00 938a4a00 73002030  ..........J.s. 0
 2a10 b3870a00 83a04700 03a18700 83a1c700  ......G.........
 2a20 03a20701 83a24701 03a38701 83a3c701  ......G.........
 2a30 03a40702 83a44702 03a58702 83a5c702  ......G.........
 2a40 03a60703 83a64703 03a78703 83a7c703  ......G.........
 2a50 03a80704 83a84704 03a98704 83a9c704  ......G.........
 2a60 03aa0705 83aa4705 03ab8705 83abc705  ......G.........
 2a70 03ac0706 83ac4706 03ad8706 83adc706  ......G.........
 2a80 03ae0707 83ae4707 03af8707 83afc707  ......G.........
 2a90 93870708 b38a0700 83a70a00 938a4a00  ..............J.
 2aa0 73002030 f3261034 93864600 73901634  s. 0.&.4..F.s..4
 2ab0 b3870a00 83a04700 03a18700 83a1c700  ......G.........
 2ac0 03a20701 83a24701 03a38701 83a3c701  ......G.........
 2ad0 03a40702 83a44702 03a58702 83a5c702  ......G.........
 2ae0 03a60703 83a64703 03a78703 83a7c703  ......G.........
 2af0 03a80704 83a84704 03a98704 83a9c704  ......G.........
 2b00 03aa0705 83aa4705 03ab8705 83abc705  ......G.........
 2b10 03ac0706 83ac4706 03ad8706 83adc706  ......G.........
 2b20 03ae0707 83ae4707 03af8707 83afc707  ......G.........
 2b30 93870708 b38a0700 83a70a00 938a4a00  ..............J.
 2b40 73002030 f3261034 93864600 73901634  s. 0.&.4..F.s..4
 2b50 b3870a00 83a04700 03a18700 83a1c700  ......G.........
 2b60 03a20701 83a24701 03a38701 83a3c701  ......G.........
 2b70 03a40702 83a44702 03a58702 83a5c702  ......G.........
 2b80 03a60703 83a64703 03a78703 83a7c703  ......G.........
 2b90 03a80704 83a84704 03a98704 83a9c704  ......G.........
 2ba0 03aa0705 83aa4705 03ab8705 83abc705  ......G.........
 2bb0 03ac0706 83ac4706 03ad8706 83adc706  ......G.........
 2bc0 03ae0707 83ae4707 03af8707 83afc707  ......G.........
 2bd0 93870708 b38a0700 83a70a00 938a4a00  ..............J.
 2be0 73002030 13000000 f3260030 f3264030  s. 0.....&.0.&@0
 2bf0 f3264034 f3b64634 b3870a00 83a04700  .&@4..F4......G.
 2c00 03a18700 83a1c700 03a20701 83a24701  ..............G.
 2c10 03a38701 83a3c701 03a40702 83a44702  ..............G.
 2c20 03a58702 83a5c702 03a60703 83a64703  ..............G.
 2c30 03a78703 83a7c703 03a80704 83a84704  ..............G.
 2c40 03a98704 83a9c704 03aa0705 83aa4705  ..............G.
 2c50 03ab8705 83abc705 03ac0706 83ac4706  ..............G.
 2c60 03ad8706 83adc706 03ae0707 83ae4707  ..............G.
 2c70 03af8707 83afc707 93870708 b38a0700  ................
 2c80 83a70a00 938a4a00 73002030 13000000  ......J.s. 0....
Contents of section .data:
 8100 00000000 00000000 00000000 00000000  ................
Contents of section .user_stack:
 8110 00000000 00000000 00000000 00000000  ................
 8120 00000000 00000000 00000000 00000000  ................
 8130 00000000 00000000 00000000 00000000  ................
 8140 00000000 00000000 00000000 00000000  ................
 8150 00000000 00000000 00000000 00000000  ................
 8160 00000000 00000000 00000000 00000000  ................
 8170 00000000 00000000 00000000 00000000  ................
 8180 00000000 00000000 00000000 00000000  ................
 8190 00000000 00000000 00000000 00000000  ................
 81a0 00000000 00000000 00000000 00000000  ................
 81b0 00000000 00000000 00000000 00000000  ................
 81c0 00000000 00000000 00000000 00000000  ................
 81d0 00000000 00000000 00000000 00000000  ................
 81e0 00000000 00000000 00000000 00000000  ................
 81f0 00000000 00000000 00000000 00000000  ................
 8200 00000000 00000000 00000000 00000000  ................
 8210 00000000 00000000 00000000 00000000  ................
 8220 00000000 00000000 00000000 00000000  ................
 8230 00000000 00000000 00000000 00000000  ................
 8240 00000000 00000000 00000000 00000000  ................
 8250 00000000 00000000 00000000 00000000  ................
 8260 00000000 00000000 00000000 00000000  ................
 8270 00000000 00000000 00000000 00000000  ................
 8280 00000000 00000000 00000000 00000000  ................
 8290 00000000 00000000 00000000 00000000  ................
 82a0 00000000 00000000 00000000 00000000  ................
 82b0 00000000 00000000 00000000 00000000  ................
 82c0 00000000 00000000 00000000 00000000  ................
 82d0 00000000 00000000 00000000 00000000  ................
 82e0 00000000 00000000 00000000 00000000  ................
 82f0 00000000 00000000 00000000 00000000  ................
 8300 00000000 00000000 00000000 00000000  ................
 8310 00000000                             ....            
Contents of section .kernel_stack:
 8314 00000000 00000000 00000000 00000000  ................
 8324 00000000 00000000 00000000 00000000  ................
 8334 00000000 00000000 00000000 00000000  ................
 8344 00000000 00000000 00000000 00000000  ................
 8354 00000000 00000000 00000000 00000000  ................
 8364 00000000 00000000 00000000 00000000  ................
 8374 00000000 00000000 00000000 00000000  ................
 8384 00000000 00000000 00000000 00000000  ................
 8394 00000000 00000000 00000000 00000000  ................
 83a4 00000000 00000000 00000000 00000000  ................
 83b4 00000000 00000000 00000000 00000000  ................
 83c4 00000000 00000000 00000000 00000000  ................
 83d4 00000000 00000000 00000000 00000000  ................
 83e4 00000000 00000000 00000000 00000000  ................
 83f4 00000000 00000000 00000000 00000000  ................
 8404 00000000 00000000 00000000 00000000  ................
 8414 00000000 00000000 00000000 00000000  ................
 8424 00000000 00000000 00000000 00000000  ................
 8434 00000000 00000000 00000000 00000000  ................
 8444 00000000 00000000 00000000 00000000  ................
 8454 00000000 00000000 00000000 00000000  ................
 8464 00000000 00000000 00000000 00000000  ................
 8474 00000000 00000000 00000000 00000000  ................
 8484 00000000 00000000 00000000 00000000  ................
 8494 00000000 00000000 00000000 00000000  ................
 84a4 00000000 00000000 00000000 00000000  ................
 84b4 00000000 00000000 00000000 00000000  ................
 84c4 00000000 00000000 00000000 00000000  ................
 84d4 00000000 00000000 00000000 00000000  ................
 84e4 00000000 00000000 00000000 00000000  ................
 84f4 00000000 00000000 00000000 00000000  ................
 8504 00000000 00000000 00000000 00000000  ................
 8514 00000000                             ....            
Contents of section .riscv.attributes:
 0000 41390000 00726973 63760001 2f000000  A9...riscv../...
 0010 05727633 32693270 315f6d32 70305f66  .rv32i2p1_m2p0_f
 0020 3270325f 7a696373 72327030 5f7a6d6d  2p2_zicsr2p0_zmm
 0030 756c3170 30000801 0a0b               ul1p0.....      

Disassembly of section .text:

00002000 <_start>:
    2000:	00000093          	li	ra,0
    2004:	00000113          	li	sp,0
    2008:	00000193          	li	gp,0
    200c:	00000213          	li	tp,0
    2010:	00000293          	li	t0,0
    2014:	00000313          	li	t1,0
    2018:	00000393          	li	t2,0
    201c:	00000413          	li	s0,0
    2020:	00000493          	li	s1,0
    2024:	00000513          	li	a0,0
    2028:	00000593          	li	a1,0
    202c:	00000613          	li	a2,0
    2030:	00000693          	li	a3,0
    2034:	00000713          	li	a4,0
    2038:	00000793          	li	a5,0
    203c:	00000813          	li	a6,0
    2040:	00000893          	li	a7,0
    2044:	00000913          	li	s2,0
    2048:	00000993          	li	s3,0
    204c:	00000a13          	li	s4,0
    2050:	00000a93          	li	s5,0
    2054:	00000b13          	li	s6,0
    2058:	00000b93          	li	s7,0
    205c:	00000c13          	li	s8,0
    2060:	00000c93          	li	s9,0
    2064:	00000d13          	li	s10,0
    2068:	00000d93          	li	s11,0
    206c:	00000e13          	li	t3,0
    2070:	00000e93          	li	t4,0
    2074:	00000f13          	li	t5,0
    2078:	00000f93          	li	t6,0
    207c:	00007197          	auipc	gp,0x7
    2080:	88418193          	addi	gp,gp,-1916 # 8900 <_gp>

00002084 <init_bss>:
    2084:	00006517          	auipc	a0,0x6
    2088:	49450513          	addi	a0,a0,1172 # 8518 <__bss_end>
    208c:	00006597          	auipc	a1,0x6
    2090:	48858593          	addi	a1,a1,1160 # 8514 <kernel_stack_end>
    2094:	00000613          	li	a2,0
    2098:	07c000ef          	jal	2114 <fill_block>

0000209c <init_sbss>:
    209c:	00006517          	auipc	a0,0x6
    20a0:	06450513          	addi	a0,a0,100 # 8100 <__data_start>
    20a4:	00006597          	auipc	a1,0x6
    20a8:	05858593          	addi	a1,a1,88 # 80fc <_test_start+0xfc>
    20ac:	00000613          	li	a2,0
    20b0:	064000ef          	jal	2114 <fill_block>

000020b4 <write_stack_pattern>:
    20b4:	00006517          	auipc	a0,0x6
    20b8:	46450513          	addi	a0,a0,1124 # 8518 <__bss_end>
    20bc:	00007597          	auipc	a1,0x7
    20c0:	45858593          	addi	a1,a1,1112 # 9514 <_gp+0xc14>
    20c4:	00000613          	li	a2,0
    20c8:	04c000ef          	jal	2114 <fill_block>

000020cc <init_stack>:
    20cc:	00007117          	auipc	sp,0x7
    20d0:	44c10113          	addi	sp,sp,1100 # 9518 <__stack>

000020d4 <write_test_pattern>:
    20d4:	00006517          	auipc	a0,0x6
    20d8:	f2c50513          	addi	a0,a0,-212 # 8000 <_test_start>
    20dc:	00006597          	auipc	a1,0x6
    20e0:	02058593          	addi	a1,a1,32 # 80fc <_test_start+0xfc>
    20e4:	00000613          	li	a2,0
    20e8:	02c000ef          	jal	2114 <fill_block>

000020ec <SystemInit>:
    20ec:	09c000ef          	jal	2188 <init>

000020f0 <SystemExit>:
    20f0:	0000e297          	auipc	t0,0xe
    20f4:	f0c28293          	addi	t0,t0,-244 # fffc <_sim_end>
    20f8:	fff00313          	li	t1,-1
    20fc:	0062a023          	sw	t1,0(t0)
    2100:	00100293          	li	t0,1
    2104:	00006317          	auipc	t1,0x6
    2108:	ffc30313          	addi	t1,t1,-4 # 8100 <__data_start>
    210c:	00532023          	sw	t0,0(t1)

00002110 <dead_loop>:
    2110:	0000006f          	j	2110 <dead_loop>

00002114 <fill_block>:
    2114:	00b57863          	bgeu	a0,a1,2124 <fb_end>
    2118:	00c52023          	sw	a2,0(a0)
    211c:	00450513          	addi	a0,a0,4
    2120:	ff5ff06f          	j	2114 <fill_block>

00002124 <fb_end>:
    2124:	00008067          	ret

00002128 <_rv_gen_start>:
    2128:	f14022f3          	csrr	t0,mhartid
    212c:	00000313          	li	t1,0
    2130:	00628263          	beq	t0,t1,2134 <_rv_gen_start+0xc>
    2134:	00000013          	nop
    2138:	00000013          	nop

0000213c <h0_rv_gen_start>:
    213c:	400006b7          	lui	a3,0x40000
    2140:	10068693          	addi	a3,a3,256 # 40000100 <_end+0x3fff0100>
    2144:	30169073          	csrw	misa,a3

00002148 <kernel_sp>:
    2148:	00006a97          	auipc	s5,0x6
    214c:	3cca8a93          	addi	s5,s5,972 # 8514 <kernel_stack_end>

00002150 <trap_vec_init>:
    2150:	00000697          	auipc	a3,0x0
    2154:	5f468693          	addi	a3,a3,1524 # 2744 <mtvec_handler>
    2158:	0006e693          	ori	a3,a3,0
    215c:	30569073          	csrw	mtvec,a3

00002160 <mepc_setup>:
    2160:	00000697          	auipc	a3,0x0
    2164:	02868693          	addi	a3,a3,40 # 2188 <init>
    2168:	34169073          	csrw	mepc,a3

0000216c <custom_csr_setup>:
    216c:	00000013          	nop

00002170 <init_machine_mode>:
    2170:	000026b7          	lui	a3,0x2
    2174:	80068693          	addi	a3,a3,-2048 # 1800 <_STACK_SIZE+0x800>
    2178:	30069073          	csrw	mstatus,a3
    217c:	00000693          	li	a3,0
    2180:	30469073          	csrw	mie,a3
    2184:	30200073          	mret

00002188 <init>:
    2188:	f2f5e037          	lui	zero,0xf2f5e
    218c:	6d600013          	li	zero,1750
    2190:	00f00093          	li	ra,15
    2194:	00f00113          	li	sp,15
    2198:	f075f1b7          	lui	gp,0xf075f
    219c:	49618193          	addi	gp,gp,1174 # f075f496 <_end+0xf074f496>
    21a0:	9164c237          	lui	tp,0x9164c
    21a4:	2d420213          	addi	tp,tp,724 # 9164c2d4 <_end+0x9163c2d4>
    21a8:	4a46f2b7          	lui	t0,0x4a46f
    21ac:	d6428293          	addi	t0,t0,-668 # 4a46ed64 <_end+0x4a45ed64>
    21b0:	00200313          	li	t1,2
    21b4:	00000393          	li	t2,0
    21b8:	00000413          	li	s0,0
    21bc:	00000493          	li	s1,0
    21c0:	80000537          	lui	a0,0x80000
    21c4:	800005b7          	lui	a1,0x80000
    21c8:	80000637          	lui	a2,0x80000
    21cc:	fdbff6b7          	lui	a3,0xfdbff
    21d0:	12e68693          	addi	a3,a3,302 # fdbff12e <_end+0xfdbef12e>
    21d4:	f6f97737          	lui	a4,0xf6f97
    21d8:	15470713          	addi	a4,a4,340 # f6f97154 <_end+0xf6f87154>
    21dc:	9d612837          	lui	a6,0x9d612
    21e0:	c8c80813          	addi	a6,a6,-884 # 9d611c8c <_end+0x9d601c8c>
    21e4:	fe4fd8b7          	lui	a7,0xfe4fd
    21e8:	3b388893          	addi	a7,a7,947 # fe4fd3b3 <_end+0xfe4ed3b3>
    21ec:	fa94c937          	lui	s2,0xfa94c
    21f0:	63f90913          	addi	s2,s2,1599 # fa94c63f <_end+0xfa93c63f>
    21f4:	800009b7          	lui	s3,0x80000
    21f8:	00800a13          	li	s4,8
    21fc:	504bbb37          	lui	s6,0x504bb
    2200:	4b3b0b13          	addi	s6,s6,1203 # 504bb4b3 <_end+0x504ab4b3>
    2204:	ae318bb7          	lui	s7,0xae318
    2208:	6c2b8b93          	addi	s7,s7,1730 # ae3186c2 <_end+0xae3086c2>
    220c:	f7000c37          	lui	s8,0xf7000
    2210:	d98c0c13          	addi	s8,s8,-616 # f6fffd98 <_end+0xf6fefd98>
    2214:	00600c93          	li	s9,6
    2218:	80000d37          	lui	s10,0x80000
    221c:	00d00d93          	li	s11,13
    2220:	00000e13          	li	t3,0
    2224:	80000eb7          	lui	t4,0x80000
    2228:	e18eff37          	lui	t5,0xe18ef
    222c:	f13f0f13          	addi	t5,t5,-237 # e18eef13 <_end+0xe18def13>
    2230:	60487fb7          	lui	t6,0x60487
    2234:	1f4f8f93          	addi	t6,t6,500 # 604871f4 <_end+0x604771f4>
    2238:	00006797          	auipc	a5,0x6
    223c:	0d878793          	addi	a5,a5,216 # 8310 <user_stack_end>

00002240 <main>:
    2240:	00000b97          	auipc	s7,0x0
    2244:	264b8b93          	addi	s7,s7,612 # 24a4 <sub_1>
    2248:	0011fa33          	and	s4,gp,ra
    224c:	01c65e33          	srl	t3,a2,t3
    2250:	01bc2233          	slt	tp,s8,s11
    2254:	00000013          	nop
    2258:	00fd4633          	xor	a2,s10,a5
    225c:	00906eb3          	or	t4,zero,s1
    2260:	00cb8133          	add	sp,s7,a2
    2264:	f59b8b93          	addi	s7,s7,-167
    2268:	41b25833          	sra	a6,tp,s11
    226c:	c16d3b13          	sltiu	s6,s10,-1002
    2270:	017a9713          	slli	a4,s5,0x17

00002274 <main_j2>:
    2274:	0a8b8367          	jalr	t1,168(s7)
    2278:	00000217          	auipc	tp,0x0
    227c:	1ac20213          	addi	tp,tp,428 # 2424 <sub_2>
    2280:	01a0f033          	and	zero,ra,s10
    2284:	011e2733          	slt	a4,t3,a7
    2288:	00000013          	nop
    228c:	04a20213          	addi	tp,tp,74 # 4a <_TEST_SIZE-0xb6>
    2290:	01fb0663          	beq	s6,t6,229c <main_j3>
    2294:	400282b3          	sub	t0,t0,zero
    2298:	00000013          	nop

0000229c <main_j3>:
    229c:	fb720367          	jalr	t1,-73(tp) # ffffffb7 <_end+0xfffeffb7>
    22a0:	91c1c637          	lui	a2,0x91c1c
    22a4:	c7260613          	addi	a2,a2,-910 # 91c1bc72 <_end+0x91c0bc72>
    22a8:	4ce6b9b7          	lui	s3,0x4ce6b
    22ac:	63798993          	addi	s3,s3,1591 # 4ce6b637 <_end+0x4ce5b637>
    22b0:	00000293          	li	t0,0
    22b4:	80000a37          	lui	s4,0x80000
    22b8:	13646e37          	lui	t3,0x13646
    22bc:	ddee0e13          	addi	t3,t3,-546 # 13645dde <_end+0x13635dde>
    22c0:	00000d13          	li	s10,0
    22c4:	80000737          	lui	a4,0x80000
    22c8:	80000f37          	lui	t5,0x80000
    22cc:	80000837          	lui	a6,0x80000
    22d0:	fff00413          	li	s0,-1
    22d4:	40560433          	sub	s0,a2,t0
    22d8:	40ca0a33          	sub	s4,s4,a2
    22dc:	ecb7d417          	auipc	s0,0xecb7d
    22e0:	d40f0a13          	addi	s4,t5,-704 # 7ffffd40 <_end+0x7ffefd40>
    22e4:	ca498993          	addi	s3,s3,-860
    22e8:	551a0813          	addi	a6,s4,1361 # 80000551 <_end+0x7fff0551>
    22ec:	70510e37          	lui	t3,0x70510
    22f0:	00000013          	nop
    22f4:	410609b3          	sub	s3,a2,a6
    22f8:	014d0833          	add	a6,s10,s4
    22fc:	a373de17          	auipc	t3,0xa373d
    2300:	00000013          	nop
    2304:	01a80433          	add	s0,a6,s10
    2308:	4168f737          	lui	a4,0x4168f
    230c:	a82a2e17          	auipc	t3,0xa82a2
    2310:	03188d17          	auipc	s10,0x3188
    2314:	115bd2b7          	lui	t0,0x115bd
    2318:	4cb83313          	sltiu	t1,a6,1227
    231c:	00a2ee33          	or	t3,t0,a0
    2320:	01f5a5b3          	slt	a1,a1,t6
    2324:	90314613          	xori	a2,sp,-1789
    2328:	012ff1b3          	and	gp,t6,s2
    232c:	2a63a813          	slti	a6,t2,678
    2330:	564c8e37          	lui	t3,0x564c8
    2334:	0149ca33          	xor	s4,s3,s4
    2338:	0157d113          	srli	sp,a5,0x15
    233c:	00000d17          	auipc	s10,0x0
    2340:	168d0d13          	addi	s10,s10,360 # 24a4 <sub_1>
    2344:	01551933          	sll	s2,a0,s5
    2348:	01a63433          	sltu	s0,a2,s10
    234c:	e61d0d13          	addi	s10,s10,-415
    2350:	00000013          	nop
    2354:	003da133          	slt	sp,s11,gp
    2358:	007d4033          	xor	zero,s10,t2

0000235c <main_j1>:
    235c:	19fd0367          	jalr	t1,415(s10)
    2360:	017df233          	and	tp,s11,s7
    2364:	007aeb33          	or	s6,s5,t2
    2368:	8dd6eb13          	ori	s6,a3,-1827
    236c:	01c62e33          	slt	t3,a2,t3
    2370:	00000f97          	auipc	t6,0x0
    2374:	00cf8f93          	addi	t6,t6,12 # 237c <test_done>
    2378:	00000013          	nop

0000237c <test_done>:
    237c:	00100193          	li	gp,1
    2380:	d71ff06f          	j	20f0 <SystemExit>

00002384 <sub_5>:
    2384:	fdc78793          	addi	a5,a5,-36
    2388:	019b9c33          	sll	s8,s7,s9
    238c:	0067a223          	sw	t1,4(a5)
    2390:	01ca1513          	slli	a0,s4,0x1c
    2394:	41e90e33          	sub	t3,s2,t5
    2398:	68611517          	auipc	a0,0x68611
    239c:	03d6cd17          	auipc	s10,0x3d6c
    23a0:	141b6c13          	ori	s8,s6,321
    23a4:	4db2ca13          	xori	s4,t0,1243
    23a8:	003adf33          	srl	t5,s5,gp
    23ac:	41ce84b3          	sub	s1,t4,t3
    23b0:	0065e933          	or	s2,a1,t1
    23b4:	00758833          	add	a6,a1,t2
    23b8:	00000013          	nop
    23bc:	01e08db3          	add	s11,ra,t5
    23c0:	01c44933          	xor	s2,s0,t3
    23c4:	acbd0e93          	addi	t4,s10,-1333 # 3d6de67 <_end+0x3d5de67>
    23c8:	00371533          	sll	a0,a4,gp
    23cc:	ed366713          	ori	a4,a2,-301
    23d0:	0191f1b3          	and	gp,gp,s9
    23d4:	c0a6ee13          	ori	t3,a3,-1014
    23d8:	8ed7cc13          	xori	s8,a5,-1811
    23dc:	a208be13          	sltiu	t3,a7,-1504
    23e0:	01a3b133          	sltu	sp,t2,s10
    23e4:	17554193          	xori	gp,a0,373
    23e8:	79bb4613          	xori	a2,s6,1947
    23ec:	019ee6b3          	or	a3,t4,s9
    23f0:	00d6fb33          	and	s6,a3,a3
    23f4:	00429293          	slli	t0,t0,0x4
    23f8:	c9f93013          	sltiu	zero,s2,-865
    23fc:	0047a303          	lw	t1,4(a5)
    2400:	41d189b3          	sub	s3,gp,t4
    2404:	45856417          	auipc	s0,0x45856
    2408:	02478793          	addi	a5,a5,36
    240c:	27783713          	sltiu	a4,a6,631
    2410:	2f2e4013          	xori	zero,t3,754
    2414:	40045013          	srai	zero,s0,0x0
    2418:	00f164b3          	or	s1,sp,a5
    241c:	00030293          	mv	t0,t1
    2420:	000282e7          	jalr	t0,t0 # 115bd000 <_end+0x115ad000>

00002424 <sub_2>:
    2424:	9676c413          	xori	s0,a3,-1689
    2428:	01a43c33          	sltu	s8,s0,s10
    242c:	40f75f13          	srai	t5,a4,0xf
    2430:	402d8833          	sub	a6,s11,sp
    2434:	00000013          	nop
    2438:	fdc78793          	addi	a5,a5,-36
    243c:	00000013          	nop
    2440:	0067a223          	sw	t1,4(a5)
    2444:	005ca1b3          	slt	gp,s9,t0
    2448:	77b4c393          	xori	t2,s1,1915
    244c:	789246b7          	lui	a3,0x78924
    2450:	3cf18997          	auipc	s3,0x3cf18
    2454:	01af80b3          	add	ra,t6,s10
    2458:	82234f13          	xori	t5,t1,-2014
    245c:	01979cb3          	sll	s9,a5,s9
    2460:	40a3dc13          	srai	s8,t2,0xa
    2464:	b923dd37          	lui	s10,0xb923d
    2468:	4085d593          	srai	a1,a1,0x8
    246c:	008c5313          	srli	t1,s8,0x8
    2470:	6fa33317          	auipc	t1,0x6fa33
    2474:	006f6cb3          	or	s9,t5,t1
    2478:	00000013          	nop
    247c:	4003df33          	sra	t5,t2,zero
    2480:	0047a303          	lw	t1,4(a5)
    2484:	9a556b13          	ori	s6,a0,-1627
    2488:	01b145b3          	xor	a1,sp,s11
    248c:	e8b3c593          	xori	a1,t2,-373
    2490:	b34bfbb7          	lui	s7,0xb34bf
    2494:	02478793          	addi	a5,a5,36
    2498:	a13e5897          	auipc	a7,0xa13e5
    249c:	00030c93          	mv	s9,t1
    24a0:	000c8ce7          	jalr	s9,s9

000024a4 <sub_1>:
    24a4:	00e4da33          	srl	s4,s1,a4
    24a8:	008a6233          	or	tp,s4,s0
    24ac:	fd878793          	addi	a5,a5,-40
    24b0:	0067a223          	sw	t1,4(a5)
    24b4:	61d3bf17          	auipc	t5,0x61d3b
    24b8:	80a5cb97          	auipc	s7,0x80a5c
    24bc:	008fb933          	sltu	s2,t6,s0
    24c0:	1c6fa593          	slti	a1,t6,454
    24c4:	01f70433          	add	s0,a4,t6
    24c8:	00000013          	nop
    24cc:	40538133          	sub	sp,t2,t0
    24d0:	0181ec33          	or	s8,gp,s8
    24d4:	01553eb3          	sltu	t4,a0,s5
    24d8:	00395e33          	srl	t3,s2,gp
    24dc:	01492533          	slt	a0,s2,s4
    24e0:	002d59b3          	srl	s3,s10,sp

000024e4 <sub_1_j4>:
    24e4:	0a80036f          	jal	t1,258c <sub_3>
    24e8:	41fdd013          	srai	zero,s11,0x1f
    24ec:	00000917          	auipc	s2,0x0
    24f0:	0a090913          	addi	s2,s2,160 # 258c <sub_3>
    24f4:	f0590913          	addi	s2,s2,-251
    24f8:	a7c03893          	sltiu	a7,zero,-1412
    24fc:	00f49f33          	sll	t5,s1,a5
    2500:	0046f533          	and	a0,a3,tp
    2504:	00850a63          	beq	a0,s0,2518 <sub_1_j5>
    2508:	e763f893          	andi	a7,t2,-394
    250c:	019bde33          	srl	t3,s7,s9
    2510:	4ab1e193          	ori	gp,gp,1195
    2514:	f7d58617          	auipc	a2,0xf7d58

00002518 <sub_1_j5>:
    2518:	0fc90367          	jalr	t1,252(s2)
    251c:	002d69b3          	or	s3,s10,sp
    2520:	00468bb3          	add	s7,a3,tp
    2524:	41115e93          	srai	t4,sp,0x11
    2528:	00876e33          	or	t3,a4,s0
    252c:	50ccbd13          	sltiu	s10,s9,1292
    2530:	01864f33          	xor	t5,a2,s8
    2534:	3e403417          	auipc	s0,0x3e403
    2538:	4508e393          	ori	t2,a7,1104
    253c:	41fbdeb3          	sra	t4,s7,t6
    2540:	40cd52b3          	sra	t0,s10,a2
    2544:	00e8af33          	slt	t5,a7,a4
    2548:	00000013          	nop
    254c:	000e0733          	add	a4,t3,zero
    2550:	401e00b3          	sub	ra,t3,ra
    2554:	4031db93          	srai	s7,gp,0x3
    2558:	0195c4b3          	xor	s1,a1,s9
    255c:	0113ebb3          	or	s7,t2,a7
    2560:	0047a303          	lw	t1,4(a5)
    2564:	01097933          	and	s2,s2,a6
    2568:	410c09b3          	sub	s3,s8,a6
    256c:	0030ab33          	slt	s6,ra,gp
    2570:	b9dead93          	slti	s11,t4,-1123
    2574:	410c5233          	sra	tp,s8,a6
    2578:	0071c733          	xor	a4,gp,t2
    257c:	02878793          	addi	a5,a5,40
    2580:	00c608b3          	add	a7,a2,a2
    2584:	00130f13          	addi	t5,t1,1 # 6fa35471 <_end+0x6fa25471>
    2588:	000f0f67          	jalr	t5,t5 # 61d3d4b4 <_end+0x61d2d4b4>

0000258c <sub_3>:
    258c:	940d1e97          	auipc	t4,0x940d1
    2590:	fc078793          	addi	a5,a5,-64
    2594:	007892b3          	sll	t0,a7,t2
    2598:	0067a223          	sw	t1,4(a5)
    259c:	41565993          	srai	s3,a2,0x15
    25a0:	00000013          	nop
    25a4:	00572f33          	slt	t5,a4,t0
    25a8:	c2702e17          	auipc	t3,0xc2702
    25ac:	4087dc13          	srai	s8,a5,0x8
    25b0:	0165d613          	srli	a2,a1,0x16
    25b4:	403bdc13          	srai	s8,s7,0x3
    25b8:	7e602413          	slti	s0,zero,2022
    25bc:	40fe88b3          	sub	a7,t4,a5

000025c0 <sub_3_j6>:
    25c0:	08c0036f          	jal	t1,264c <sub_4>
    25c4:	00cd9733          	sll	a4,s11,a2
    25c8:	d8082cb7          	lui	s9,0xd8082
    25cc:	a49acd37          	lui	s10,0xa49ac
    25d0:	01fe53b3          	srl	t2,t3,t6
    25d4:	01cc5833          	srl	a6,s8,t3
    25d8:	613fa713          	slti	a4,t6,1555
    25dc:	00000013          	nop
    25e0:	011ad433          	srl	s0,s5,a7
    25e4:	0111f233          	and	tp,gp,a7
    25e8:	002fb133          	sltu	sp,t6,sp
    25ec:	b9160b13          	addi	s6,a2,-1135 # f7d5a0a5 <_end+0xf7d4a0a5>
    25f0:	01786eb3          	or	t4,a6,s7
    25f4:	0969e893          	ori	a7,s3,150
    25f8:	b5a912b7          	lui	t0,0xb5a91
    25fc:	0137a933          	slt	s2,a5,s3
    2600:	00bce933          	or	s2,s9,a1
    2604:	780dcb93          	xori	s7,s11,1920
    2608:	016460b3          	or	ra,s0,s6
    260c:	018e8433          	add	s0,t4,s8
    2610:	00f24eb3          	xor	t4,tp,a5
    2614:	4ca4c097          	auipc	ra,0x4ca4c
    2618:	00000013          	nop
    261c:	00000013          	nop
    2620:	8d292e97          	auipc	t4,0x8d292
    2624:	0047a303          	lw	t1,4(a5)
    2628:	011c19b3          	sll	s3,s8,a7
    262c:	41432613          	slti	a2,t1,1044
    2630:	00000013          	nop
    2634:	41b5d9b3          	sra	s3,a1,s11
    2638:	a5d113b7          	lui	t2,0xa5d11
    263c:	04078793          	addi	a5,a5,64
    2640:	01d35433          	srl	s0,t1,t4
    2644:	00130f13          	addi	t5,t1,1
    2648:	000f0f67          	jalr	t5,t5

0000264c <sub_4>:
    264c:	fdc78793          	addi	a5,a5,-36
    2650:	0090ccb3          	xor	s9,ra,s1
    2654:	d59eeb13          	ori	s6,t4,-679
    2658:	0067a223          	sw	t1,4(a5)
    265c:	0049c833          	xor	a6,s3,tp
    2660:	e0ca6193          	ori	gp,s4,-500
    2664:	f59b4213          	xori	tp,s6,-167
    2668:	4d1c1b37          	lui	s6,0x4d1c1
    266c:	41ac0b33          	sub	s6,s8,s10
    2670:	0055c8b3          	xor	a7,a1,t0
    2674:	40e788b3          	sub	a7,a5,a4
    2678:	0096ff33          	and	t5,a3,s1
    267c:	17434a13          	xori	s4,t1,372
    2680:	00000013          	nop
    2684:	40570bb3          	sub	s7,a4,t0
    2688:	e6fed517          	auipc	a0,0xe6fed
    268c:	0116c133          	xor	sp,a3,a7
    2690:	00e95f33          	srl	t5,s2,a4
    2694:	35201097          	auipc	ra,0x35201
    2698:	00f980b3          	add	ra,s3,a5

0000269c <sub_4_j7>:
    269c:	ce9ff36f          	jal	t1,2384 <sub_5>
    26a0:	64f57917          	auipc	s2,0x64f57
    26a4:	fd931717          	auipc	a4,0xfd931
    26a8:	017bee33          	or	t3,s7,s7
    26ac:	00e1da13          	srli	s4,gp,0xe
    26b0:	413204b3          	sub	s1,tp,s3
    26b4:	01382533          	slt	a0,a6,s3
    26b8:	00627033          	and	zero,tp,t1
    26bc:	0068e233          	or	tp,a7,t1
    26c0:	01e01cb3          	sll	s9,zero,t5

000026c4 <sub_4_j8>:
    26c4:	cc1ff36f          	jal	t1,2384 <sub_5>
    26c8:	406b5193          	srai	gp,s6,0x6
    26cc:	2f2fbb93          	sltiu	s7,t6,754
    26d0:	002f1413          	slli	s0,t5,0x2
    26d4:	00e76833          	or	a6,a4,a4
    26d8:	00219413          	slli	s0,gp,0x2
    26dc:	41ca03b3          	sub	t2,s4,t3
    26e0:	0acc9917          	auipc	s2,0xacc9
    26e4:	00eb5c13          	srli	s8,s6,0xe
    26e8:	00000013          	nop
    26ec:	ef92cd13          	xori	s10,t0,-263
    26f0:	0fa02f13          	slti	t5,zero,250
    26f4:	01fdf133          	and	sp,s11,t6
    26f8:	00abe233          	or	tp,s7,a0
    26fc:	019fc033          	xor	zero,t6,s9
    2700:	a1806413          	ori	s0,zero,-1512
    2704:	013c1693          	slli	a3,s8,0x13
    2708:	40f89337          	lui	t1,0x40f89
    270c:	da46f6b7          	lui	a3,0xda46f
    2710:	036ebf13          	sltiu	t5,t4,54
    2714:	0047a303          	lw	t1,4(a5)
    2718:	00723833          	sltu	a6,tp,t2
    271c:	02478793          	addi	a5,a5,36
    2720:	00845d13          	srli	s10,s0,0x8
    2724:	00bf40b3          	xor	ra,t5,a1
    2728:	99aee413          	ori	s0,t4,-1638
    272c:	00030113          	mv	sp,t1
    2730:	00010167          	jalr	sp,sp

00002734 <write_tohost>:
    2734:	00006f17          	auipc	t5,0x6
    2738:	9c3f2623          	sw	gp,-1588(t5) # 8100 <__data_start>

0000273c <_exit>:
    273c:	ff9ff06f          	j	2734 <write_tohost>

00002740 <instr_end>:
    2740:	00000013          	nop

00002744 <mtvec_handler>:
    2744:	ffca8a93          	addi	s5,s5,-4
    2748:	00faa023          	sw	a5,0(s5)
    274c:	000a87b3          	add	a5,s5,zero
    2750:	f8078793          	addi	a5,a5,-128
    2754:	0017a223          	sw	ra,4(a5)
    2758:	0027a423          	sw	sp,8(a5)
    275c:	0037a623          	sw	gp,12(a5)
    2760:	0047a823          	sw	tp,16(a5)
    2764:	0057aa23          	sw	t0,20(a5)
    2768:	0067ac23          	sw	t1,24(a5)
    276c:	0077ae23          	sw	t2,28(a5)
    2770:	0287a023          	sw	s0,32(a5)
    2774:	0297a223          	sw	s1,36(a5)
    2778:	02a7a423          	sw	a0,40(a5)
    277c:	02b7a623          	sw	a1,44(a5)
    2780:	02c7a823          	sw	a2,48(a5)
    2784:	02d7aa23          	sw	a3,52(a5)
    2788:	02e7ac23          	sw	a4,56(a5)
    278c:	02f7ae23          	sw	a5,60(a5)
    2790:	0507a023          	sw	a6,64(a5)
    2794:	0517a223          	sw	a7,68(a5)
    2798:	0527a423          	sw	s2,72(a5)
    279c:	0537a623          	sw	s3,76(a5)
    27a0:	0547a823          	sw	s4,80(a5)
    27a4:	0557aa23          	sw	s5,84(a5)
    27a8:	0567ac23          	sw	s6,88(a5)
    27ac:	0577ae23          	sw	s7,92(a5)
    27b0:	0787a023          	sw	s8,96(a5)
    27b4:	0797a223          	sw	s9,100(a5)
    27b8:	07a7a423          	sw	s10,104(a5)
    27bc:	07b7a623          	sw	s11,108(a5)
    27c0:	07c7a823          	sw	t3,112(a5)
    27c4:	07d7aa23          	sw	t4,116(a5)
    27c8:	07e7ac23          	sw	t5,120(a5)
    27cc:	07f7ae23          	sw	t6,124(a5)
    27d0:	00078ab3          	add	s5,a5,zero
    27d4:	300026f3          	csrr	a3,mstatus
    27d8:	342026f3          	csrr	a3,mcause
    27dc:	01f6d693          	srli	a3,a3,0x1f
    27e0:	40069463          	bnez	a3,2be8 <mmode_intr_handler>

000027e4 <mmode_exception_handler>:
    27e4:	341026f3          	csrr	a3,mepc
    27e8:	342026f3          	csrr	a3,mcause
    27ec:	00300513          	li	a0,3
    27f0:	2aa68a63          	beq	a3,a0,2aa4 <ebreak_handler>
    27f4:	00800513          	li	a0,8
    27f8:	04a68e63          	beq	a3,a0,2854 <ecall_handler>
    27fc:	00900513          	li	a0,9
    2800:	04a68a63          	beq	a3,a0,2854 <ecall_handler>
    2804:	00b00513          	li	a0,11
    2808:	04a68663          	beq	a3,a0,2854 <ecall_handler>
    280c:	00100513          	li	a0,1
    2810:	0ca68c63          	beq	a3,a0,28e8 <instr_fault_handler>
    2814:	00500513          	li	a0,5
    2818:	16a68263          	beq	a3,a0,297c <load_fault_handler>
    281c:	00700513          	li	a0,7
    2820:	1ea68863          	beq	a3,a0,2a10 <store_fault_handler>
    2824:	00c00513          	li	a0,12
    2828:	3aa68e63          	beq	a3,a0,2be4 <pt_fault_handler>
    282c:	00d00513          	li	a0,13
    2830:	3aa68a63          	beq	a3,a0,2be4 <pt_fault_handler>
    2834:	00f00513          	li	a0,15
    2838:	3aa68663          	beq	a3,a0,2be4 <pt_fault_handler>
    283c:	00200513          	li	a0,2
    2840:	30a68263          	beq	a3,a0,2b44 <illegal_instr_handler>
    2844:	34302573          	csrr	a0,mtval
    2848:	00000f97          	auipc	t6,0x0
    284c:	b34f8f93          	addi	t6,t6,-1228 # 237c <test_done>
    2850:	000f80e7          	jalr	t6

00002854 <ecall_handler>:
    2854:	fffff697          	auipc	a3,0xfffff
    2858:	7ac68693          	addi	a3,a3,1964 # 2000 <_start>
    285c:	0006a023          	sw	zero,0(a3)
    2860:	0016a223          	sw	ra,4(a3)
    2864:	0026a423          	sw	sp,8(a3)
    2868:	0036a623          	sw	gp,12(a3)
    286c:	0046a823          	sw	tp,16(a3)
    2870:	0056aa23          	sw	t0,20(a3)
    2874:	0066ac23          	sw	t1,24(a3)
    2878:	0076ae23          	sw	t2,28(a3)
    287c:	0286a023          	sw	s0,32(a3)
    2880:	0296a223          	sw	s1,36(a3)
    2884:	02a6a423          	sw	a0,40(a3)
    2888:	02b6a623          	sw	a1,44(a3)
    288c:	02c6a823          	sw	a2,48(a3)
    2890:	02d6aa23          	sw	a3,52(a3)
    2894:	02e6ac23          	sw	a4,56(a3)
    2898:	02f6ae23          	sw	a5,60(a3)
    289c:	0506a023          	sw	a6,64(a3)
    28a0:	0516a223          	sw	a7,68(a3)
    28a4:	0526a423          	sw	s2,72(a3)
    28a8:	0536a623          	sw	s3,76(a3)
    28ac:	0546a823          	sw	s4,80(a3)
    28b0:	0556aa23          	sw	s5,84(a3)
    28b4:	0566ac23          	sw	s6,88(a3)
    28b8:	0576ae23          	sw	s7,92(a3)
    28bc:	0786a023          	sw	s8,96(a3)
    28c0:	0796a223          	sw	s9,100(a3)
    28c4:	07a6a423          	sw	s10,104(a3)
    28c8:	07b6a623          	sw	s11,108(a3)
    28cc:	07c6a823          	sw	t3,112(a3)
    28d0:	07d6aa23          	sw	t4,116(a3)
    28d4:	07e6ac23          	sw	t5,120(a3)
    28d8:	07f6ae23          	sw	t6,124(a3)
    28dc:	00000f97          	auipc	t6,0x0
    28e0:	e58f8f93          	addi	t6,t6,-424 # 2734 <write_tohost>
    28e4:	00000013          	nop

000028e8 <instr_fault_handler>:
    28e8:	000a87b3          	add	a5,s5,zero
    28ec:	0047a083          	lw	ra,4(a5)
    28f0:	0087a103          	lw	sp,8(a5)
    28f4:	00c7a183          	lw	gp,12(a5)
    28f8:	0107a203          	lw	tp,16(a5)
    28fc:	0147a283          	lw	t0,20(a5)
    2900:	0187a303          	lw	t1,24(a5)
    2904:	01c7a383          	lw	t2,28(a5)
    2908:	0207a403          	lw	s0,32(a5)
    290c:	0247a483          	lw	s1,36(a5)
    2910:	0287a503          	lw	a0,40(a5)
    2914:	02c7a583          	lw	a1,44(a5)
    2918:	0307a603          	lw	a2,48(a5)
    291c:	0347a683          	lw	a3,52(a5)
    2920:	0387a703          	lw	a4,56(a5)
    2924:	03c7a783          	lw	a5,60(a5)
    2928:	0407a803          	lw	a6,64(a5)
    292c:	0447a883          	lw	a7,68(a5)
    2930:	0487a903          	lw	s2,72(a5)
    2934:	04c7a983          	lw	s3,76(a5)
    2938:	0507aa03          	lw	s4,80(a5)
    293c:	0547aa83          	lw	s5,84(a5)
    2940:	0587ab03          	lw	s6,88(a5)
    2944:	05c7ab83          	lw	s7,92(a5)
    2948:	0607ac03          	lw	s8,96(a5)
    294c:	0647ac83          	lw	s9,100(a5)
    2950:	0687ad03          	lw	s10,104(a5)
    2954:	06c7ad83          	lw	s11,108(a5)
    2958:	0707ae03          	lw	t3,112(a5)
    295c:	0747ae83          	lw	t4,116(a5)
    2960:	0787af03          	lw	t5,120(a5)
    2964:	07c7af83          	lw	t6,124(a5)
    2968:	08078793          	addi	a5,a5,128
    296c:	00078ab3          	add	s5,a5,zero
    2970:	000aa783          	lw	a5,0(s5)
    2974:	004a8a93          	addi	s5,s5,4
    2978:	30200073          	mret

0000297c <load_fault_handler>:
    297c:	000a87b3          	add	a5,s5,zero
    2980:	0047a083          	lw	ra,4(a5)
    2984:	0087a103          	lw	sp,8(a5)
    2988:	00c7a183          	lw	gp,12(a5)
    298c:	0107a203          	lw	tp,16(a5)
    2990:	0147a283          	lw	t0,20(a5)
    2994:	0187a303          	lw	t1,24(a5)
    2998:	01c7a383          	lw	t2,28(a5)
    299c:	0207a403          	lw	s0,32(a5)
    29a0:	0247a483          	lw	s1,36(a5)
    29a4:	0287a503          	lw	a0,40(a5)
    29a8:	02c7a583          	lw	a1,44(a5)
    29ac:	0307a603          	lw	a2,48(a5)
    29b0:	0347a683          	lw	a3,52(a5)
    29b4:	0387a703          	lw	a4,56(a5)
    29b8:	03c7a783          	lw	a5,60(a5)
    29bc:	0407a803          	lw	a6,64(a5)
    29c0:	0447a883          	lw	a7,68(a5)
    29c4:	0487a903          	lw	s2,72(a5)
    29c8:	04c7a983          	lw	s3,76(a5)
    29cc:	0507aa03          	lw	s4,80(a5)
    29d0:	0547aa83          	lw	s5,84(a5)
    29d4:	0587ab03          	lw	s6,88(a5)
    29d8:	05c7ab83          	lw	s7,92(a5)
    29dc:	0607ac03          	lw	s8,96(a5)
    29e0:	0647ac83          	lw	s9,100(a5)
    29e4:	0687ad03          	lw	s10,104(a5)
    29e8:	06c7ad83          	lw	s11,108(a5)
    29ec:	0707ae03          	lw	t3,112(a5)
    29f0:	0747ae83          	lw	t4,116(a5)
    29f4:	0787af03          	lw	t5,120(a5)
    29f8:	07c7af83          	lw	t6,124(a5)
    29fc:	08078793          	addi	a5,a5,128
    2a00:	00078ab3          	add	s5,a5,zero
    2a04:	000aa783          	lw	a5,0(s5)
    2a08:	004a8a93          	addi	s5,s5,4
    2a0c:	30200073          	mret

00002a10 <store_fault_handler>:
    2a10:	000a87b3          	add	a5,s5,zero
    2a14:	0047a083          	lw	ra,4(a5)
    2a18:	0087a103          	lw	sp,8(a5)
    2a1c:	00c7a183          	lw	gp,12(a5)
    2a20:	0107a203          	lw	tp,16(a5)
    2a24:	0147a283          	lw	t0,20(a5)
    2a28:	0187a303          	lw	t1,24(a5)
    2a2c:	01c7a383          	lw	t2,28(a5)
    2a30:	0207a403          	lw	s0,32(a5)
    2a34:	0247a483          	lw	s1,36(a5)
    2a38:	0287a503          	lw	a0,40(a5)
    2a3c:	02c7a583          	lw	a1,44(a5)
    2a40:	0307a603          	lw	a2,48(a5)
    2a44:	0347a683          	lw	a3,52(a5)
    2a48:	0387a703          	lw	a4,56(a5)
    2a4c:	03c7a783          	lw	a5,60(a5)
    2a50:	0407a803          	lw	a6,64(a5)
    2a54:	0447a883          	lw	a7,68(a5)
    2a58:	0487a903          	lw	s2,72(a5)
    2a5c:	04c7a983          	lw	s3,76(a5)
    2a60:	0507aa03          	lw	s4,80(a5)
    2a64:	0547aa83          	lw	s5,84(a5)
    2a68:	0587ab03          	lw	s6,88(a5)
    2a6c:	05c7ab83          	lw	s7,92(a5)
    2a70:	0607ac03          	lw	s8,96(a5)
    2a74:	0647ac83          	lw	s9,100(a5)
    2a78:	0687ad03          	lw	s10,104(a5)
    2a7c:	06c7ad83          	lw	s11,108(a5)
    2a80:	0707ae03          	lw	t3,112(a5)
    2a84:	0747ae83          	lw	t4,116(a5)
    2a88:	0787af03          	lw	t5,120(a5)
    2a8c:	07c7af83          	lw	t6,124(a5)
    2a90:	08078793          	addi	a5,a5,128
    2a94:	00078ab3          	add	s5,a5,zero
    2a98:	000aa783          	lw	a5,0(s5)
    2a9c:	004a8a93          	addi	s5,s5,4
    2aa0:	30200073          	mret

00002aa4 <ebreak_handler>:
    2aa4:	341026f3          	csrr	a3,mepc
    2aa8:	00468693          	addi	a3,a3,4
    2aac:	34169073          	csrw	mepc,a3
    2ab0:	000a87b3          	add	a5,s5,zero
    2ab4:	0047a083          	lw	ra,4(a5)
    2ab8:	0087a103          	lw	sp,8(a5)
    2abc:	00c7a183          	lw	gp,12(a5)
    2ac0:	0107a203          	lw	tp,16(a5)
    2ac4:	0147a283          	lw	t0,20(a5)
    2ac8:	0187a303          	lw	t1,24(a5)
    2acc:	01c7a383          	lw	t2,28(a5)
    2ad0:	0207a403          	lw	s0,32(a5)
    2ad4:	0247a483          	lw	s1,36(a5)
    2ad8:	0287a503          	lw	a0,40(a5)
    2adc:	02c7a583          	lw	a1,44(a5)
    2ae0:	0307a603          	lw	a2,48(a5)
    2ae4:	0347a683          	lw	a3,52(a5)
    2ae8:	0387a703          	lw	a4,56(a5)
    2aec:	03c7a783          	lw	a5,60(a5)
    2af0:	0407a803          	lw	a6,64(a5)
    2af4:	0447a883          	lw	a7,68(a5)
    2af8:	0487a903          	lw	s2,72(a5)
    2afc:	04c7a983          	lw	s3,76(a5)
    2b00:	0507aa03          	lw	s4,80(a5)
    2b04:	0547aa83          	lw	s5,84(a5)
    2b08:	0587ab03          	lw	s6,88(a5)
    2b0c:	05c7ab83          	lw	s7,92(a5)
    2b10:	0607ac03          	lw	s8,96(a5)
    2b14:	0647ac83          	lw	s9,100(a5)
    2b18:	0687ad03          	lw	s10,104(a5)
    2b1c:	06c7ad83          	lw	s11,108(a5)
    2b20:	0707ae03          	lw	t3,112(a5)
    2b24:	0747ae83          	lw	t4,116(a5)
    2b28:	0787af03          	lw	t5,120(a5)
    2b2c:	07c7af83          	lw	t6,124(a5)
    2b30:	08078793          	addi	a5,a5,128
    2b34:	00078ab3          	add	s5,a5,zero
    2b38:	000aa783          	lw	a5,0(s5)
    2b3c:	004a8a93          	addi	s5,s5,4
    2b40:	30200073          	mret

00002b44 <illegal_instr_handler>:
    2b44:	341026f3          	csrr	a3,mepc
    2b48:	00468693          	addi	a3,a3,4
    2b4c:	34169073          	csrw	mepc,a3
    2b50:	000a87b3          	add	a5,s5,zero
    2b54:	0047a083          	lw	ra,4(a5)
    2b58:	0087a103          	lw	sp,8(a5)
    2b5c:	00c7a183          	lw	gp,12(a5)
    2b60:	0107a203          	lw	tp,16(a5)
    2b64:	0147a283          	lw	t0,20(a5)
    2b68:	0187a303          	lw	t1,24(a5)
    2b6c:	01c7a383          	lw	t2,28(a5)
    2b70:	0207a403          	lw	s0,32(a5)
    2b74:	0247a483          	lw	s1,36(a5)
    2b78:	0287a503          	lw	a0,40(a5)
    2b7c:	02c7a583          	lw	a1,44(a5)
    2b80:	0307a603          	lw	a2,48(a5)
    2b84:	0347a683          	lw	a3,52(a5)
    2b88:	0387a703          	lw	a4,56(a5)
    2b8c:	03c7a783          	lw	a5,60(a5)
    2b90:	0407a803          	lw	a6,64(a5)
    2b94:	0447a883          	lw	a7,68(a5)
    2b98:	0487a903          	lw	s2,72(a5)
    2b9c:	04c7a983          	lw	s3,76(a5)
    2ba0:	0507aa03          	lw	s4,80(a5)
    2ba4:	0547aa83          	lw	s5,84(a5)
    2ba8:	0587ab03          	lw	s6,88(a5)
    2bac:	05c7ab83          	lw	s7,92(a5)
    2bb0:	0607ac03          	lw	s8,96(a5)
    2bb4:	0647ac83          	lw	s9,100(a5)
    2bb8:	0687ad03          	lw	s10,104(a5)
    2bbc:	06c7ad83          	lw	s11,108(a5)
    2bc0:	0707ae03          	lw	t3,112(a5)
    2bc4:	0747ae83          	lw	t4,116(a5)
    2bc8:	0787af03          	lw	t5,120(a5)
    2bcc:	07c7af83          	lw	t6,124(a5)
    2bd0:	08078793          	addi	a5,a5,128
    2bd4:	00078ab3          	add	s5,a5,zero
    2bd8:	000aa783          	lw	a5,0(s5)
    2bdc:	004a8a93          	addi	s5,s5,4
    2be0:	30200073          	mret

00002be4 <pt_fault_handler>:
    2be4:	00000013          	nop

00002be8 <mmode_intr_handler>:
    2be8:	300026f3          	csrr	a3,mstatus
    2bec:	304026f3          	csrr	a3,mie
    2bf0:	344026f3          	csrr	a3,mip
    2bf4:	3446b6f3          	csrrc	a3,mip,a3
    2bf8:	000a87b3          	add	a5,s5,zero
    2bfc:	0047a083          	lw	ra,4(a5)
    2c00:	0087a103          	lw	sp,8(a5)
    2c04:	00c7a183          	lw	gp,12(a5)
    2c08:	0107a203          	lw	tp,16(a5)
    2c0c:	0147a283          	lw	t0,20(a5)
    2c10:	0187a303          	lw	t1,24(a5)
    2c14:	01c7a383          	lw	t2,28(a5)
    2c18:	0207a403          	lw	s0,32(a5)
    2c1c:	0247a483          	lw	s1,36(a5)
    2c20:	0287a503          	lw	a0,40(a5)
    2c24:	02c7a583          	lw	a1,44(a5)
    2c28:	0307a603          	lw	a2,48(a5)
    2c2c:	0347a683          	lw	a3,52(a5)
    2c30:	0387a703          	lw	a4,56(a5)
    2c34:	03c7a783          	lw	a5,60(a5)
    2c38:	0407a803          	lw	a6,64(a5)
    2c3c:	0447a883          	lw	a7,68(a5)
    2c40:	0487a903          	lw	s2,72(a5)
    2c44:	04c7a983          	lw	s3,76(a5)
    2c48:	0507aa03          	lw	s4,80(a5)
    2c4c:	0547aa83          	lw	s5,84(a5)
    2c50:	0587ab03          	lw	s6,88(a5)
    2c54:	05c7ab83          	lw	s7,92(a5)
    2c58:	0607ac03          	lw	s8,96(a5)
    2c5c:	0647ac83          	lw	s9,100(a5)
    2c60:	0687ad03          	lw	s10,104(a5)
    2c64:	06c7ad83          	lw	s11,108(a5)
    2c68:	0707ae03          	lw	t3,112(a5)
    2c6c:	0747ae83          	lw	t4,116(a5)
    2c70:	0787af03          	lw	t5,120(a5)
    2c74:	07c7af83          	lw	t6,124(a5)
    2c78:	08078793          	addi	a5,a5,128
    2c7c:	00078ab3          	add	s5,a5,zero
    2c80:	000aa783          	lw	a5,0(s5)
    2c84:	004a8a93          	addi	s5,s5,4
    2c88:	30200073          	mret

00002c8c <kernel_instr_end>:
    2c8c:	00000013          	nop
